target datalayout = "e-m:e-p270:32:32-p271:32:32-p272:64:64-i64:64-i128:128-f80:128-n8:16:32:64-S128"
target triple = "x86_64-pc-linux-gnu"

%"class.OpenImageIO::v3_1_0::BmpInput" = type <{ %"class.OpenImageIO::v3_1_0::ImageInput", i64, i32, %"class.OpenImageIO::v3_1_0::bmp_pvt::BmpFileHeader", %"class.OpenImageIO::v3_1_0::bmp_pvt::DibInformationHeader", %"class.std::__cxx11::basic_string", %"class.std::vector.16", %"class.std::vector.21", %"class.std::vector.21", [3 x i32], [3 x i32], i8, [7 x i8] }>
%"class.OpenImageIO::v3_1_0::ImageInput" = type { ptr, %"class.OpenImageIO::v3_1_0::ImageSpec", %"class.std::unique_ptr" }
%"class.OpenImageIO::v3_1_0::ImageSpec" = type { i32, i32, i32, i32, i32, i32, i32, i32, i32, i32, i32, i32, i32, i32, i32, i32, %"struct.OpenImageIO::v3_1_0::TypeDesc", %"class.std::vector", %"class.std::vector.0", i32, i32, i8, %"class.OpenImageIO::v3_1_0::ParamValueList" }
%"struct.OpenImageIO::v3_1_0::TypeDesc" = type { i8, i8, i8, i8, i32 }
%"class.std::vector" = type { %"struct.std::_Vector_base" }
%"struct.std::_Vector_base" = type { %"struct.std::_Vector_base<OpenImageIO::v3_1_0::TypeDesc, std::allocator<OpenImageIO::v3_1_0::TypeDesc>>::_Vector_impl" }
%"struct.std::_Vector_base<OpenImageIO::v3_1_0::TypeDesc, std::allocator<OpenImageIO::v3_1_0::TypeDesc>>::_Vector_impl" = type { %"struct.std::_Vector_base<OpenImageIO::v3_1_0::TypeDesc, std::allocator<OpenImageIO::v3_1_0::TypeDesc>>::_Vector_impl_data" }
%"struct.std::_Vector_base<OpenImageIO::v3_1_0::TypeDesc, std::allocator<OpenImageIO::v3_1_0::TypeDesc>>::_Vector_impl_data" = type { ptr, ptr, ptr }
%"class.std::vector.0" = type { %"struct.std::_Vector_base.1" }
%"struct.std::_Vector_base.1" = type { %"struct.std::_Vector_base<std::__cxx11::basic_string<char>, std::allocator<std::__cxx11::basic_string<char>>>::_Vector_impl" }
%"struct.std::_Vector_base<std::__cxx11::basic_string<char>, std::allocator<std::__cxx11::basic_string<char>>>::_Vector_impl" = type { %"struct.std::_Vector_base<std::__cxx11::basic_string<char>, std::allocator<std::__cxx11::basic_string<char>>>::_Vector_impl_data" }
%"struct.std::_Vector_base<std::__cxx11::basic_string<char>, std::allocator<std::__cxx11::basic_string<char>>>::_Vector_impl_data" = type { ptr, ptr, ptr }
%"class.OpenImageIO::v3_1_0::ParamValueList" = type { %"class.std::vector.5" }
%"class.std::vector.5" = type { %"struct.std::_Vector_base.6" }
%"struct.std::_Vector_base.6" = type { %"struct.std::_Vector_base<OpenImageIO::v3_1_0::ParamValue, std::allocator<OpenImageIO::v3_1_0::ParamValue>>::_Vector_impl" }
%"struct.std::_Vector_base<OpenImageIO::v3_1_0::ParamValue, std::allocator<OpenImageIO::v3_1_0::ParamValue>>::_Vector_impl" = type { %"struct.std::_Vector_base<OpenImageIO::v3_1_0::ParamValue, std::allocator<OpenImageIO::v3_1_0::ParamValue>>::_Vector_impl_data" }
%"struct.std::_Vector_base<OpenImageIO::v3_1_0::ParamValue, std::allocator<OpenImageIO::v3_1_0::ParamValue>>::_Vector_impl_data" = type { ptr, ptr, ptr }
%"class.std::unique_ptr" = type { %"struct.std::__uniq_ptr_data" }
%"struct.std::__uniq_ptr_data" = type { %"class.std::__uniq_ptr_impl" }
%"class.std::__uniq_ptr_impl" = type { %"class.std::tuple" }
%"class.std::tuple" = type { %"struct.std::_Tuple_impl" }
%"struct.std::_Tuple_impl" = type { %"struct.std::_Tuple_impl.10", %"struct.std::_Head_base.11" }
%"struct.std::_Tuple_impl.10" = type { %"struct.std::_Head_base" }
%"struct.std::_Head_base" = type { ptr }
%"struct.std::_Head_base.11" = type { ptr }
%"class.OpenImageIO::v3_1_0::bmp_pvt::BmpFileHeader" = type { i16, i32, i16, i16, i32 }
%"class.OpenImageIO::v3_1_0::bmp_pvt::DibInformationHeader" = type { i32, i32, i32, i16, i16, i32, i32, i32, i32, i32, i32, i32, i32, i32, i32, i32, i32, i32, i32, i32, i32, i32, i32, i32, i32, i32, i32, i32, i32, i32, i32, i32 }
%"class.std::__cxx11::basic_string" = type { %"struct.std::__cxx11::basic_string<char>::_Alloc_hider", i64, %union.anon.15 }
%"struct.std::__cxx11::basic_string<char>::_Alloc_hider" = type { ptr }
%union.anon.15 = type { i64, [8 x i8] }
%"class.std::vector.16" = type { %"struct.std::_Vector_base.17" }
%"struct.std::_Vector_base.17" = type { %"struct.std::_Vector_base<OpenImageIO::v3_1_0::bmp_pvt::color_table, std::allocator<OpenImageIO::v3_1_0::bmp_pvt::color_table>>::_Vector_impl" }
%"struct.std::_Vector_base<OpenImageIO::v3_1_0::bmp_pvt::color_table, std::allocator<OpenImageIO::v3_1_0::bmp_pvt::color_table>>::_Vector_impl" = type { %"struct.std::_Vector_base<OpenImageIO::v3_1_0::bmp_pvt::color_table, std::allocator<OpenImageIO::v3_1_0::bmp_pvt::color_table>>::_Vector_impl_data" }
%"struct.std::_Vector_base<OpenImageIO::v3_1_0::bmp_pvt::color_table, std::allocator<OpenImageIO::v3_1_0::bmp_pvt::color_table>>::_Vector_impl_data" = type { ptr, ptr, ptr }
%"class.std::vector.21" = type { %"struct.std::_Vector_base.22" }
%"struct.std::_Vector_base.22" = type { %"struct.std::_Vector_base<unsigned char, std::allocator<unsigned char>>::_Vector_impl" }
%"struct.std::_Vector_base<unsigned char, std::allocator<unsigned char>>::_Vector_impl" = type { %"struct.std::_Vector_base<unsigned char, std::allocator<unsigned char>>::_Vector_impl_data" }
%"struct.std::_Vector_base<unsigned char, std::allocator<unsigned char>>::_Vector_impl_data" = type { ptr, ptr, ptr }
%"struct.OpenImageIO::v3_1_0::bmp_pvt::color_table" = type { i8, i8, i8, i8 }

; Function Attrs: mustprogress nounwind uwtable
define linkonce_odr hidden noundef nonnull align 1 dereferenceable(4) ptr @_ZNSt6vectorIN11OpenImageIO6v3_1_07bmp_pvt11color_tableESaIS3_EEixEm(ptr noundef nonnull align 8 dereferenceable(24) %0, i64 noundef %1) #6 comdat align 2 {
  %3 = alloca ptr, align 8
  %4 = alloca i64, align 8
  store ptr %0, ptr %3, align 8, !tbaa !151
  store i64 %1, ptr %4, align 8, !tbaa !118
  %5 = load ptr, ptr %3, align 8
  %6 = getelementptr inbounds nuw %"struct.std::_Vector_base.17", ptr %5, i32 0, i32 0
  %7 = getelementptr inbounds nuw %"struct.std::_Vector_base<OpenImageIO::v3_1_0::bmp_pvt::color_table, std::allocator<OpenImageIO::v3_1_0::bmp_pvt::color_table>>::_Vector_impl_data", ptr %6, i32 0, i32 0
  %8 = load ptr, ptr %7, align 8, !tbaa !153
  %9 = load i64, ptr %4, align 8, !tbaa !118
  %10 = getelementptr inbounds nuw %"struct.OpenImageIO::v3_1_0::bmp_pvt::color_table", ptr %8, i64 %9
  ret ptr %10
}

; Function Attrs: mustprogress nounwind uwtable
define linkonce_odr hidden noundef i64 @_ZNKSt6vectorIN11OpenImageIO6v3_1_07bmp_pvt11color_tableESaIS3_EE4sizeEv(ptr noundef nonnull align 8 dereferenceable(24) %0) #6 comdat align 2 {
  %2 = alloca ptr, align 8
  store ptr %0, ptr %2, align 8, !tbaa !151
  %3 = load ptr, ptr %2, align 8
  %4 = getelementptr inbounds nuw %"struct.std::_Vector_base.17", ptr %3, i32 0, i32 0
  %5 = getelementptr inbounds nuw %"struct.std::_Vector_base<OpenImageIO::v3_1_0::bmp_pvt::color_table, std::allocator<OpenImageIO::v3_1_0::bmp_pvt::color_table>>::_Vector_impl_data", ptr %4, i32 0, i32 1
  %6 = load ptr, ptr %5, align 8, !tbaa !154
  %7 = getelementptr inbounds nuw %"struct.std::_Vector_base.17", ptr %3, i32 0, i32 0
  %8 = getelementptr inbounds nuw %"struct.std::_Vector_base<OpenImageIO::v3_1_0::bmp_pvt::color_table, std::allocator<OpenImageIO::v3_1_0::bmp_pvt::color_table>>::_Vector_impl_data", ptr %7, i32 0, i32 0
  %9 = load ptr, ptr %8, align 8, !tbaa !153
  %10 = ptrtoint ptr %6 to i64
  %11 = ptrtoint ptr %9 to i64
  %12 = sub i64 %10, %11
  %13 = sdiv exact i64 %12, 4
  ret i64 %13
}

; Function Attrs: mustprogress nounwind uwtable
define hidden noundef zeroext i1 @_ZN11OpenImageIO6v3_1_08BmpInput23color_table_is_all_grayEv(ptr noundef nonnull align 8 dereferenceable(472) %0) #6 align 2 {
  %2 = alloca i1, align 1
  %3 = alloca ptr, align 8
  %4 = alloca i64, align 8
  %5 = alloca i64, align 8
  %6 = alloca i32, align 4
  %7 = alloca ptr, align 8
  store ptr %0, ptr %3, align 8, !tbaa !8
  %8 = load ptr, ptr %3, align 8
  call void @llvm.lifetime.start.p0(i64 8, ptr %4) #3
  %9 = getelementptr inbounds nuw %"class.OpenImageIO::v3_1_0::BmpInput", ptr %8, i32 0, i32 6
  %10 = call noundef i64 @_ZNKSt6vectorIN11OpenImageIO6v3_1_07bmp_pvt11color_tableESaIS3_EE4sizeEv(ptr noundef nonnull align 8 dereferenceable(24) %9) #3
  store i64 %10, ptr %4, align 8, !tbaa !118
  call void @llvm.lifetime.start.p0(i64 8, ptr %5) #3
  store i64 0, ptr %5, align 8, !tbaa !118
  br label %11

11:                                               ; preds = %44, %1
  %12 = load i64, ptr %5, align 8, !tbaa !118
  %13 = load i64, ptr %4, align 8, !tbaa !118
  %14 = icmp ult i64 %12, %13
  br i1 %14, label %16, label %15

15:                                               ; preds = %11
  store i32 2, ptr %6, align 4
  br label %47

16:                                               ; preds = %11
  call void @llvm.lifetime.start.p0(i64 8, ptr %7) #3
  %17 = getelementptr inbounds nuw %"class.OpenImageIO::v3_1_0::BmpInput", ptr %8, i32 0, i32 6
  %18 = load i64, ptr %5, align 8, !tbaa !118
  %19 = call noundef nonnull align 1 dereferenceable(4) ptr @_ZNSt6vectorIN11OpenImageIO6v3_1_07bmp_pvt11color_tableESaIS3_EEixEm(ptr noundef nonnull align 8 dereferenceable(24) %17, i64 noundef %18) #3
  store ptr %19, ptr %7, align 8, !tbaa !120
  %20 = load ptr, ptr %7, align 8, !tbaa !120
  %21 = getelementptr inbounds nuw %"struct.OpenImageIO::v3_1_0::bmp_pvt::color_table", ptr %20, i32 0, i32 0
  %22 = load i8, ptr %21, align 1, !tbaa !121
  %23 = zext i8 %22 to i32
  %24 = load ptr, ptr %7, align 8, !tbaa !120
  %25 = getelementptr inbounds nuw %"struct.OpenImageIO::v3_1_0::bmp_pvt::color_table", ptr %24, i32 0, i32 1
  %26 = load i8, ptr %25, align 1, !tbaa !123
  %27 = zext i8 %26 to i32
  %28 = icmp ne i32 %23, %27
  br i1 %28, label %39, label %29

29:                                               ; preds = %16
  %30 = load ptr, ptr %7, align 8, !tbaa !120
  %31 = getelementptr inbounds nuw %"struct.OpenImageIO::v3_1_0::bmp_pvt::color_table", ptr %30, i32 0, i32 1
  %32 = load i8, ptr %31, align 1, !tbaa !123
  %33 = zext i8 %32 to i32
  %34 = load ptr, ptr %7, align 8, !tbaa !120
  %35 = getelementptr inbounds nuw %"struct.OpenImageIO::v3_1_0::bmp_pvt::color_table", ptr %34, i32 0, i32 2
  %36 = load i8, ptr %35, align 1, !tbaa !124
  %37 = zext i8 %36 to i32
  %38 = icmp ne i32 %33, %37
  br i1 %38, label %39, label %40

39:                                               ; preds = %29, %16
  store i1 false, ptr %2, align 1
  store i32 1, ptr %6, align 4
  br label %41

40:                                               ; preds = %29
  store i32 0, ptr %6, align 4
  br label %41

41:                                               ; preds = %40, %39
  call void @llvm.lifetime.end.p0(i64 8, ptr %7) #3
  %42 = load i32, ptr %6, align 4
  switch i32 %42, label %47 [
    i32 0, label %43
  ]

43:                                               ; preds = %41
  br label %44

44:                                               ; preds = %43
  %45 = load i64, ptr %5, align 8, !tbaa !118
  %46 = add i64 %45, 1
  store i64 %46, ptr %5, align 8, !tbaa !118
  br label %11, !llvm.loop !125

47:                                               ; preds = %41, %15
  call void @llvm.lifetime.end.p0(i64 8, ptr %5) #3
  %48 = load i32, ptr %6, align 4
  switch i32 %48, label %50 [
    i32 2, label %49
  ]

49:                                               ; preds = %47
  store i1 true, ptr %2, align 1
  store i32 1, ptr %6, align 4
  br label %50

50:                                               ; preds = %49, %47
  call void @llvm.lifetime.end.p0(i64 8, ptr %4) #3
  %51 = load i1, ptr %2, align 1
  ret i1 %51
}