; Function Attrs: mustprogress nofree norecurse nosync nounwind willreturn memory(read, inaccessiblemem: none) uwtable
define hidden noundef zeroext i1 @_ZN11OpenImageIO6v3_1_08BmpInput23color_table_is_all_grayEv(ptr noundef nonnull readonly align 8 captures(none) dereferenceable(472) %0) local_unnamed_addr #8 align 2 {
  %2 = getelementptr inbounds nuw i8, ptr %0, i64 368
  %3 = getelementptr inbounds nuw i8, ptr %0, i64 376
  %4 = load ptr, ptr %3, align 8, !tbaa !83
  %5 = load ptr, ptr %2, align 8, !tbaa !61
  %.not1720 = icmp eq ptr %4, %5
  br i1 %.not1720, label %.critedge19, label %.lr.ph.preheader

.lr.ph.preheader:                                 ; preds = %1
  %6 = ptrtoint ptr %4 to i64
  %7 = ptrtoint ptr %5 to i64
  %8 = sub i64 %6, %7
  %9 = ashr exact i64 %8, 2
  %umax = tail call i64 @llvm.umax.i64(i64 %9, i64 1)
  br label %.lr.ph

10:                                               ; preds = %.critedge
  %11 = add nuw i64 %.01421, 1
  %exitcond.not = icmp eq i64 %11, %umax
  br i1 %exitcond.not, label %.critedge19, label %.lr.ph, !llvm.loop !113

.lr.ph:                                           ; preds = %.lr.ph.preheader, %10
  %.01421 = phi i64 [ %11, %10 ], [ 0, %.lr.ph.preheader ]
  %12 = getelementptr inbounds nuw %"struct.OpenImageIO::v3_1_0::bmp_pvt::color_table", ptr %5, i64 %.01421
  %13 = load i8, ptr %12, align 1, !tbaa !114
  %14 = getelementptr inbounds nuw i8, ptr %12, i64 1
  %15 = load i8, ptr %14, align 1, !tbaa !116
  %.not = icmp eq i8 %13, %15
  br i1 %.not, label %.critedge, label %.critedge19

.critedge:                                        ; preds = %.lr.ph
  %16 = getelementptr inbounds nuw i8, ptr %12, i64 2
  %17 = load i8, ptr %16, align 1, !tbaa !117
  %.not16 = icmp eq i8 %13, %17
  br i1 %.not16, label %10, label %.critedge19

.critedge19:                                      ; preds = %.critedge, %.lr.ph, %10, %1
  %.not17.lcssa = phi i1 [ true, %1 ], [ true, %10 ], [ false, %.lr.ph ], [ false, %.critedge ]
  ret i1 %.not17.lcssa
}